target datalayout = "e-m:e-p270:32:32-p271:32:32-p272:64:64-i64:64-i128:128-f80:128-n8:16:32:64-S128"
target triple = "x86_64-pc-linux-gnu"

%struct.ssl_st = type { i32, i16, i16, ptr, ptr, ptr, ptr, ptr, i32, i32, ptr, ptr, i32, i32, ptr, ptr, ptr, ptr, ptr, ptr, ptr, ptr, i32, i32, [32 x i8], ptr, ptr, ptr, ptr, ptr, ptr, ptr, i64, %struct.crypto_ex_data_st, ptr, i32, i32, i32, i32, i16, ptr, i32, i64, ptr, ptr, ptr, ptr, ptr, ptr, i32, i32, ptr, ptr, i8, i8, i32 }
%struct.crypto_ex_data_st = type { ptr }
%struct.ssl3_state_st = type { [8 x i8], [8 x i8], [32 x i8], [32 x i8], i8, i8, %struct.ssl3_buffer_st, %struct.ssl3_buffer_st, %struct.ssl3_record_st, i8, i32, i32, i32, i32, ptr, ptr, %struct.env_md_ctx_st, %struct.env_md_ctx_st, i8, i32, [2 x i8], i32, i8, i8, ptr, ptr, ptr, %struct.anon, [64 x i8], i8, [64 x i8], i8, i32, i32, ptr, i64, ptr, i64, i8, [64 x i8] }
%struct.ssl3_buffer_st = type { ptr, i16, i16, i16 }
%struct.ssl3_record_st = type { i8, i16, ptr }
%struct.env_md_ctx_st = type { ptr, ptr, ptr, ptr }
%struct.anon = type { [64 x i8], i32, [64 x i8], i32, i64, i32, ptr, i32, i32, %union.anon, %union.anon.0, i8, i32, ptr, ptr, i64, ptr, i8, i8, i8, i8, i32, i8, ptr, i64, i8, ptr, i8, i8, i8, %struct.ssl_ecdh_ctx_st, ptr, i16 }
%union.anon = type { i32 }
%union.anon.0 = type { i16 }
%struct.ssl_ecdh_ctx_st = type { ptr, ptr }
%struct.cbb_st = type { ptr, ptr, i64, i8, i8, i8 }
%struct.ssl_cipher_st = type { ptr, i32, i32, i32, i32, i32, i32 }
%struct.cert_st = type { ptr, ptr, ptr, ptr, i32, i32, ptr, ptr, ptr, i64, ptr, i64, ptr, ptr, ptr }

@.str = private unnamed_addr constant [117 x i8] c"generated/home/dtcxzyw/WorkSpace/Projects/compilers/llvm-opt-benchmark/bench/libquic/libquic/boringssl/ssl/s3_clnt.c\00", align 1

; Function Attrs: nounwind uwtable
define internal i32 @ssl3_write_client_cipher_list(ptr noundef %0, ptr noundef %1) #0 {
  %3 = alloca i32, align 4
  %4 = alloca ptr, align 8
  %5 = alloca ptr, align 8
  %6 = alloca %struct.cbb_st, align 8
  %7 = alloca i32, align 4
  %8 = alloca ptr, align 8
  %9 = alloca i32, align 4
  %10 = alloca i64, align 8
  %11 = alloca ptr, align 8
  store ptr %0, ptr %4, align 8, !tbaa !6
  store ptr %1, ptr %5, align 8, !tbaa !172
  %12 = load ptr, ptr %4, align 8, !tbaa !6
  call void @ssl_set_client_disabled(ptr noundef %12)
  call void @llvm.lifetime.start.p0(i64 32, ptr %6) #8
  %13 = load ptr, ptr %5, align 8, !tbaa !172
  %14 = call i32 @CBB_add_u16_length_prefixed(ptr noundef %13, ptr noundef %6)
  %15 = icmp ne i32 %14, 0
  br i1 %15, label %17, label %16

16:                                               ; preds = %2
  store i32 0, ptr %3, align 4
  store i32 1, ptr %7, align 4
  br label %120

17:                                               ; preds = %2
  call void @llvm.lifetime.start.p0(i64 8, ptr %8) #8
  %18 = load ptr, ptr %4, align 8, !tbaa !6
  %19 = call ptr @SSL_get_ciphers(ptr noundef %18)
  store ptr %19, ptr %8, align 8, !tbaa !125
  call void @llvm.lifetime.start.p0(i64 4, ptr %9) #8
  store i32 0, ptr %9, align 4, !tbaa !14
  call void @llvm.lifetime.start.p0(i64 8, ptr %10) #8
  store i64 0, ptr %10, align 8, !tbaa !106
  br label %20

20:                                               ; preds = %74, %17
  %21 = load i64, ptr %10, align 8, !tbaa !106
  %22 = load ptr, ptr %8, align 8, !tbaa !125
  %23 = call i64 @sk_num(ptr noundef %22)
  %24 = icmp ult i64 %21, %23
  br i1 %24, label %25, label %77

25:                                               ; preds = %20
  call void @llvm.lifetime.start.p0(i64 8, ptr %11) #8
  %26 = load ptr, ptr %8, align 8, !tbaa !125
  %27 = load i64, ptr %10, align 8, !tbaa !106
  %28 = call ptr @sk_value(ptr noundef %26, i64 noundef %27)
  store ptr %28, ptr %11, align 8, !tbaa !114
  %29 = load ptr, ptr %11, align 8, !tbaa !114
  %30 = getelementptr inbounds nuw %struct.ssl_cipher_st, ptr %29, i32 0, i32 2
  %31 = load i32, ptr %30, align 4, !tbaa !115
  %32 = load ptr, ptr %4, align 8, !tbaa !6
  %33 = getelementptr inbounds nuw %struct.ssl_st, ptr %32, i32 0, i32 21
  %34 = load ptr, ptr %33, align 8, !tbaa !107
  %35 = getelementptr inbounds nuw %struct.cert_st, ptr %34, i32 0, i32 4
  %36 = load i32, ptr %35, align 8, !tbaa !117
  %37 = and i32 %31, %36
  %38 = icmp ne i32 %37, 0
  br i1 %38, label %50, label %39

39:                                               ; preds = %25
  %40 = load ptr, ptr %11, align 8, !tbaa !114
  %41 = getelementptr inbounds nuw %struct.ssl_cipher_st, ptr %40, i32 0, i32 3
  %42 = load i32, ptr %41, align 8, !tbaa !123
  %43 = load ptr, ptr %4, align 8, !tbaa !6
  %44 = getelementptr inbounds nuw %struct.ssl_st, ptr %43, i32 0, i32 21
  %45 = load ptr, ptr %44, align 8, !tbaa !107
  %46 = getelementptr inbounds nuw %struct.cert_st, ptr %45, i32 0, i32 5
  %47 = load i32, ptr %46, align 4, !tbaa !124
  %48 = and i32 %42, %47
  %49 = icmp ne i32 %48, 0
  br i1 %49, label %50, label %51

50:                                               ; preds = %39, %25
  store i32 4, ptr %7, align 4
  br label %71

51:                                               ; preds = %39
  %52 = load ptr, ptr %11, align 8, !tbaa !114
  %53 = call zeroext i16 @SSL_CIPHER_get_min_version(ptr noundef %52)
  %54 = zext i16 %53 to i32
  %55 = load ptr, ptr %4, align 8, !tbaa !6
  %56 = load ptr, ptr %4, align 8, !tbaa !6
  %57 = getelementptr inbounds nuw %struct.ssl_st, ptr %56, i32 0, i32 38
  %58 = load i32, ptr %57, align 4, !tbaa !85
  %59 = trunc i32 %58 to i16
  %60 = call zeroext i16 @ssl3_version_from_wire(ptr noundef %55, i16 noundef zeroext %59)
  %61 = zext i16 %60 to i32
  %62 = icmp sgt i32 %54, %61
  br i1 %62, label %63, label %64

63:                                               ; preds = %51
  store i32 4, ptr %7, align 4
  br label %71

64:                                               ; preds = %51
  store i32 1, ptr %9, align 4, !tbaa !14
  %65 = load ptr, ptr %11, align 8, !tbaa !114
  %66 = call zeroext i16 @ssl_cipher_get_value(ptr noundef %65)
  %67 = call i32 @CBB_add_u16(ptr noundef %6, i16 noundef zeroext %66)
  %68 = icmp ne i32 %67, 0
  br i1 %68, label %70, label %69

69:                                               ; preds = %64
  store i32 0, ptr %3, align 4
  store i32 1, ptr %7, align 4
  br label %71

70:                                               ; preds = %64
  store i32 0, ptr %7, align 4
  br label %71

71:                                               ; preds = %70, %69, %63, %50
  call void @llvm.lifetime.end.p0(i64 8, ptr %11) #8
  %72 = load i32, ptr %7, align 4
  switch i32 %72, label %119 [
    i32 0, label %73
    i32 4, label %74
  ]

73:                                               ; preds = %71
  br label %74

74:                                               ; preds = %73, %71
  %75 = load i64, ptr %10, align 8, !tbaa !106
  %76 = add i64 %75, 1
  store i64 %76, ptr %10, align 8, !tbaa !106
  br label %20, !llvm.loop !188

77:                                               ; preds = %20
  %78 = load i32, ptr %9, align 4, !tbaa !14
  %79 = icmp ne i32 %78, 0
  br i1 %79, label %81, label %80

80:                                               ; preds = %77
  call void @ERR_put_error(i32 noundef 16, i32 noundef 0, i32 noundef 175, ptr noundef @.str, i32 noundef 612)
  store i32 0, ptr %3, align 4
  store i32 1, ptr %7, align 4
  br label %119

81:                                               ; preds = %77
  %82 = load ptr, ptr %4, align 8, !tbaa !6
  %83 = getelementptr inbounds nuw %struct.ssl_st, ptr %82, i32 0, i32 38
  %84 = load i32, ptr %83, align 4, !tbaa !85
  %85 = icmp eq i32 %84, 768
  br i1 %85, label %86, label %105

86:                                               ; preds = %81
  %87 = load ptr, ptr %4, align 8, !tbaa !6
  %88 = getelementptr inbounds nuw %struct.ssl_st, ptr %87, i32 0, i32 14
  %89 = load ptr, ptr %88, align 8, !tbaa !54
  %90 = getelementptr inbounds nuw %struct.ssl3_state_st, ptr %89, i32 0, i32 5
  %91 = load i8, ptr %90, align 1, !tbaa !73
  %92 = icmp ne i8 %91, 0
  br i1 %92, label %105, label %93

93:                                               ; preds = %86
  %94 = call i32 @CBB_add_u16(ptr noundef %6, i16 noundef zeroext 255)
  %95 = icmp ne i32 %94, 0
  br i1 %95, label %97, label %96

96:                                               ; preds = %93
  store i32 0, ptr %3, align 4
  store i32 1, ptr %7, align 4
  br label %119

97:                                               ; preds = %93
  %98 = load ptr, ptr %4, align 8, !tbaa !6
  %99 = getelementptr inbounds nuw %struct.ssl_st, ptr %98, i32 0, i32 14
  %100 = load ptr, ptr %99, align 8, !tbaa !54
  %101 = getelementptr inbounds nuw %struct.ssl3_state_st, ptr %100, i32 0, i32 27
  %102 = getelementptr inbounds nuw %struct.anon, ptr %101, i32 0, i32 9
  %103 = load i32, ptr %102, align 8, !tbaa !127
  %104 = or i32 %103, 1
  store i32 %104, ptr %102, align 8, !tbaa !127
  br label %105

105:                                              ; preds = %97, %86, %81
  %106 = load ptr, ptr %4, align 8, !tbaa !6
  %107 = getelementptr inbounds nuw %struct.ssl_st, ptr %106, i32 0, i32 36
  %108 = load i32, ptr %107, align 4, !tbaa !189
  %109 = zext i32 %108 to i64
  %110 = and i64 %109, 1024
  %111 = icmp ne i64 %110, 0
  br i1 %111, label %112, label %116

112:                                              ; preds = %105
  %113 = call i32 @CBB_add_u16(ptr noundef %6, i16 noundef zeroext 22016)
  %114 = icmp ne i32 %113, 0
  br i1 %114, label %116, label %115

115:                                              ; preds = %112
  store i32 0, ptr %3, align 4
  store i32 1, ptr %7, align 4
  br label %119

116:                                              ; preds = %112, %105
  %117 = load ptr, ptr %5, align 8, !tbaa !172
  %118 = call i32 @CBB_flush(ptr noundef %117)
  store i32 %118, ptr %3, align 4
  store i32 1, ptr %7, align 4
  br label %119

119:                                              ; preds = %116, %115, %96, %80, %71
  call void @llvm.lifetime.end.p0(i64 8, ptr %10) #8
  call void @llvm.lifetime.end.p0(i64 4, ptr %9) #8
  call void @llvm.lifetime.end.p0(i64 8, ptr %8) #8
  br label %120

120:                                              ; preds = %119, %16
  call void @llvm.lifetime.end.p0(i64 32, ptr %6) #8
  %121 = load i32, ptr %3, align 4
  ret i32 %121
}