; Function Attrs: nounwind uwtable
define internal fastcc i32 @ssl3_write_client_cipher_list(ptr noundef %0, ptr noundef nonnull %1) unnamed_addr #0 {
  %3 = alloca %struct.cbb_st, align 8
  tail call void @ssl_set_client_disabled(ptr noundef %0) #11
  call void @llvm.lifetime.start.p0(i64 32, ptr nonnull %3) #11
  %4 = call i32 @CBB_add_u16_length_prefixed(ptr noundef nonnull %1, ptr noundef nonnull %3) #11
  %.not = icmp eq i32 %4, 0
  br i1 %.not, label %.loopexit, label %5

5:                                                ; preds = %2
  %6 = call ptr @SSL_get_ciphers(ptr noundef %0) #11
  %7 = call i64 @sk_num(ptr noundef %6) #11
  %.not41 = icmp eq i64 %7, 0
  br i1 %.not41, label %._crit_edge.thread, label %.lr.ph

.lr.ph:                                           ; preds = %5
  %8 = getelementptr inbounds nuw i8, ptr %0, i64 136
  %9 = getelementptr inbounds nuw i8, ptr %0, i64 276
  br label %10

10:                                               ; preds = %.lr.ph, %33
  %.02340 = phi i64 [ 0, %.lr.ph ], [ %34, %33 ]
  %.02439 = phi i32 [ 0, %.lr.ph ], [ %.125.ph, %33 ]
  %11 = call ptr @sk_value(ptr noundef %6, i64 noundef %.02340) #11
  %12 = getelementptr inbounds nuw i8, ptr %11, i64 12
  %13 = load i32, ptr %12, align 4, !tbaa !112
  %14 = load ptr, ptr %8, align 8, !tbaa !106
  %15 = getelementptr inbounds nuw i8, ptr %14, i64 32
  %16 = load i32, ptr %15, align 8, !tbaa !114
  %17 = and i32 %16, %13
  %.not32 = icmp eq i32 %17, 0
  br i1 %.not32, label %18, label %33

18:                                               ; preds = %10
  %19 = getelementptr inbounds nuw i8, ptr %11, i64 16
  %20 = load i32, ptr %19, align 8, !tbaa !120
  %21 = getelementptr inbounds nuw i8, ptr %14, i64 36
  %22 = load i32, ptr %21, align 4, !tbaa !121
  %23 = and i32 %22, %20
  %.not33 = icmp eq i32 %23, 0
  br i1 %.not33, label %24, label %33

24:                                               ; preds = %18
  %25 = call zeroext i16 @SSL_CIPHER_get_min_version(ptr noundef nonnull %11) #11
  %26 = load i32, ptr %9, align 4, !tbaa !87
  %27 = trunc i32 %26 to i16
  %28 = call zeroext i16 @ssl3_version_from_wire(ptr noundef nonnull %0, i16 noundef zeroext %27) #11
  %29 = icmp ugt i16 %25, %28
  br i1 %29, label %33, label %30

30:                                               ; preds = %24
  %31 = call zeroext i16 @ssl_cipher_get_value(ptr noundef nonnull %11) #11
  %32 = call i32 @CBB_add_u16(ptr noundef nonnull %3, i16 noundef zeroext %31) #11
  %.not34 = icmp eq i32 %32, 0
  br i1 %.not34, label %.loopexit, label %33

33:                                               ; preds = %18, %10, %24, %30
  %.125.ph = phi i32 [ 1, %30 ], [ %.02439, %24 ], [ %.02439, %10 ], [ %.02439, %18 ]
  %34 = add nuw i64 %.02340, 1
  %35 = call i64 @sk_num(ptr noundef %6) #11
  %36 = icmp ult i64 %34, %35
  br i1 %36, label %10, label %._crit_edge, !llvm.loop !163

._crit_edge:                                      ; preds = %33
  %37 = icmp eq i32 %.125.ph, 0
  br i1 %37, label %._crit_edge.thread, label %38

._crit_edge.thread:                               ; preds = %5, %._crit_edge
  call void @ERR_put_error(i32 noundef 16, i32 noundef 0, i32 noundef 175, ptr noundef nonnull @.str, i32 noundef 612) #11
  br label %.loopexit

38:                                               ; preds = %._crit_edge
  %39 = getelementptr inbounds nuw i8, ptr %0, i64 276
  %40 = load i32, ptr %39, align 4, !tbaa !87
  %41 = icmp eq i32 %40, 768
  br i1 %41, label %42, label %54

42:                                               ; preds = %38
  %43 = getelementptr inbounds nuw i8, ptr %0, i64 80
  %44 = load ptr, ptr %43, align 8, !tbaa !49
  %45 = getelementptr inbounds nuw i8, ptr %44, i64 81
  %46 = load i8, ptr %45, align 1, !tbaa !78
  %.not28 = icmp eq i8 %46, 0
  br i1 %.not28, label %47, label %54

47:                                               ; preds = %42
  %48 = call i32 @CBB_add_u16(ptr noundef nonnull %3, i16 noundef zeroext 255) #11
  %.not29 = icmp eq i32 %48, 0
  br i1 %.not29, label %.loopexit, label %49

49:                                               ; preds = %47
  %50 = load ptr, ptr %43, align 8, !tbaa !49
  %51 = getelementptr inbounds nuw i8, ptr %50, i64 456
  %52 = load i32, ptr %51, align 8, !tbaa !123
  %53 = or i32 %52, 1
  store i32 %53, ptr %51, align 8, !tbaa !123
  br label %54

54:                                               ; preds = %49, %42, %38
  %55 = getelementptr inbounds nuw i8, ptr %0, i64 268
  %56 = load i32, ptr %55, align 4, !tbaa !165
  %57 = and i32 %56, 1024
  %.not30 = icmp eq i32 %57, 0
  br i1 %.not30, label %60, label %58

58:                                               ; preds = %54
  %59 = call i32 @CBB_add_u16(ptr noundef nonnull %3, i16 noundef zeroext 22016) #11
  %.not31 = icmp eq i32 %59, 0
  br i1 %.not31, label %.loopexit, label %60

60:                                               ; preds = %58, %54
  %61 = call i32 @CBB_flush(ptr noundef nonnull %1) #11
  br label %.loopexit

.loopexit:                                        ; preds = %30, %._crit_edge.thread, %60, %47, %58, %2
  %.0 = phi i32 [ 0, %2 ], [ %61, %60 ], [ 0, %._crit_edge.thread ], [ 0, %47 ], [ 0, %58 ], [ 0, %30 ]
  call void @llvm.lifetime.end.p0(i64 32, ptr nonnull %3) #11
  ret i32 %.0
}